; Function Attrs: mustprogress uwtable
define hidden void @_ZN18subterms_postorderC2ERK7obj_refI4expr11ast_managerEb(ptr noundef nonnull align 8 dereferenceable(24) initializes((0, 1), (8, 24)) %0, ptr noundef nonnull readonly align 8 captures(none) dereferenceable(16) %1, i1 noundef zeroext %2) unnamed_addr #3 align 2 personality ptr @__gxx_personality_v0 {
  %4 = zext i1 %2 to i8
  store i8 %4, ptr %0, align 8, !tbaa !104
  %5 = getelementptr inbounds nuw i8, ptr %0, i64 8
  %6 = getelementptr inbounds nuw i8, ptr %1, i64 8
  %7 = load ptr, ptr %6, align 8, !tbaa !87
  %8 = ptrtoint ptr %7 to i64
  store i64 %8, ptr %5, align 8, !tbaa !83
  %9 = getelementptr inbounds nuw i8, ptr %0, i64 16
  store ptr null, ptr %9, align 8, !tbaa !58
  %10 = load ptr, ptr %1, align 8, !tbaa !89
  %.not = icmp eq ptr %10, null
  br i1 %.not, label %20, label %11

11:                                               ; preds = %3
  %12 = getelementptr inbounds nuw i8, ptr %10, i64 8
  %13 = load i32, ptr %12, align 4, !tbaa !8
  %14 = add i32 %13, 1
  store i32 %14, ptr %12, align 4, !tbaa !8
  invoke void @_ZN6vectorIP4exprLb0EjE13expand_vectorEv(ptr noundef nonnull align 8 dereferenceable(8) %9)
          to label %_ZN15ref_vector_coreI4expr19ref_manager_wrapperIS0_11ast_managerEE9push_backEPS0_.exit unwind label %18

_ZN15ref_vector_coreI4expr19ref_manager_wrapperIS0_11ast_managerEE9push_backEPS0_.exit: ; preds = %11
  %.pre.i.i = load ptr, ptr %9, align 8, !tbaa !58
  %.phi.trans.insert.i.i = getelementptr inbounds i8, ptr %.pre.i.i, i64 -4
  %.pre2.i.i = load i32, ptr %.phi.trans.insert.i.i, align 4, !tbaa !56
  %15 = zext i32 %.pre2.i.i to i64
  %16 = getelementptr inbounds nuw ptr, ptr %.pre.i.i, i64 %15
  store ptr %10, ptr %16, align 8, !tbaa !35
  %17 = add i32 %.pre2.i.i, 1
  store i32 %17, ptr %.phi.trans.insert.i.i, align 4, !tbaa !56
  br label %20

18:                                               ; preds = %11
  %19 = landingpad { ptr, i32 }
          cleanup
  tail call void @_ZN15ref_vector_coreI4expr19ref_manager_wrapperIS0_11ast_managerEED2Ev(ptr noundef nonnull align 8 dereferenceable(16) %5) #24
  resume { ptr, i32 } %19

20:                                               ; preds = %_ZN15ref_vector_coreI4expr19ref_manager_wrapperIS0_11ast_managerEE9push_backEPS0_.exit, %3
  ret void
}